(dp0
S'MaxQPS'
p1
F0.9
sS'AWSAccessKeyId'
p2
S'AKIAJGXK5KHX72SNS3QA'
p3
sS'_last_query_time'
p4
(lp5
NasS'AWSSecretAccessKey'
p6
S'f5JXP68gO9akKy+9nDRDq2HF/YayC3Q5zmbhT2nB'
p7
sS'Region'
p8
S'US'
p9
sS'ErrorHandler'
p10
NsS'Version'
p11
S'2011-08-01'
p12
sS'Timeout'
p13
NsS'AssociateTag'
p14
S'cmuld-20'
p15
sS'CacheWriter'
p16
NsS'Parser'
p17
NsS'CacheReader'
p18
NsS'Operation'
p19
Ns.